target datalayout = "e-m:e-p270:32:32-p271:32:32-p272:64:64-i64:64-i128:128-f80:128-n8:16:32:64-S128"
target triple = "x86_64-pc-linux-gnu"

%struct._packet_info = type { ptr, ptr, i32, i32, %struct.nstime_t, %struct.nstime_t, %struct.nstime_t, i8, ptr, ptr, ptr, ptr, %struct._address, %struct._address, %struct._address, %struct._address, %struct._address, %struct._address, i32, ptr, i8, [3 x i8], %struct.anon, i32, i32, i32, i32, ptr, i8, ptr, ptr, i16, i16, i32, i32, i16, i32, i32, ptr, ptr, ptr, i8, i8, i16, i16, i16, i32, i16, i16, ptr, ptr, ptr, ptr, ptr, i32, i32 }
%struct.nstime_t = type { i64, i32 }
%struct._address = type { i32, i32, ptr, ptr }
%struct.anon = type { i8, [3 x i8] }
%struct.tn3270_conv_info_t = type { i32, i32, i8, i8, i8, i8 }

@proto_tn3270 = internal global i32 0, align 4

; Function Attrs: null_pointer_is_valid sspstrong uwtable
define hidden void @add_tn3270_conversation(ptr noundef %0, i32 noundef %1, i32 noundef %2) #0 {
  %4 = alloca ptr, align 8
  %5 = alloca i32, align 4
  %6 = alloca i32, align 4
  %7 = alloca ptr, align 8
  %8 = alloca ptr, align 8
  store ptr %0, ptr %4, align 8
  store i32 %1, ptr %5, align 4
  store i32 %2, ptr %6, align 4
  call void @llvm.lifetime.start.p0(i64 8, ptr %7) #6
  call void @llvm.lifetime.start.p0(i64 8, ptr %8) #6
  %9 = load ptr, ptr %4, align 8
  %10 = call ptr @find_or_create_conversation(ptr noundef %9)
  store ptr %10, ptr %7, align 8
  %11 = load ptr, ptr %7, align 8
  %12 = load i32, ptr @proto_tn3270, align 4
  %13 = call ptr @conversation_get_proto_data(ptr noundef %11, i32 noundef %12)
  store ptr %13, ptr %8, align 8
  %14 = load ptr, ptr %8, align 8
  %15 = icmp eq ptr %14, null
  br i1 %15, label %16, label %27

16:                                               ; preds = %3
  %17 = call ptr @wmem_file_scope()
  %18 = call noalias ptr @wmem_alloc(ptr noundef %17, i64 noundef 12) #7
  store ptr %18, ptr %8, align 8
  %19 = load ptr, ptr %4, align 8
  %20 = getelementptr inbounds nuw %struct._packet_info, ptr %19, i32 0, i32 25
  %21 = load i32, ptr %20, align 8
  %22 = load ptr, ptr %8, align 8
  %23 = getelementptr inbounds nuw %struct.tn3270_conv_info_t, ptr %22, i32 0, i32 0
  store i32 %21, ptr %23, align 4
  %24 = load ptr, ptr %7, align 8
  %25 = load i32, ptr @proto_tn3270, align 4
  %26 = load ptr, ptr %8, align 8
  call void @conversation_add_proto_data(ptr noundef %24, i32 noundef %25, ptr noundef %26)
  br label %27

27:                                               ; preds = %16, %3
  %28 = load i32, ptr %6, align 4
  switch i32 %28, label %29 [
    i32 2, label %30
    i32 3, label %35
    i32 4, label %40
    i32 5, label %45
  ]

29:                                               ; preds = %27
  br label %30

30:                                               ; preds = %27, %29
  %31 = load ptr, ptr %8, align 8
  %32 = getelementptr inbounds nuw %struct.tn3270_conv_info_t, ptr %31, i32 0, i32 2
  store i8 24, ptr %32, align 4
  %33 = load ptr, ptr %8, align 8
  %34 = getelementptr inbounds nuw %struct.tn3270_conv_info_t, ptr %33, i32 0, i32 3
  store i8 80, ptr %34, align 1
  br label %50

35:                                               ; preds = %27
  %36 = load ptr, ptr %8, align 8
  %37 = getelementptr inbounds nuw %struct.tn3270_conv_info_t, ptr %36, i32 0, i32 2
  store i8 32, ptr %37, align 4
  %38 = load ptr, ptr %8, align 8
  %39 = getelementptr inbounds nuw %struct.tn3270_conv_info_t, ptr %38, i32 0, i32 3
  store i8 80, ptr %39, align 1
  br label %50

40:                                               ; preds = %27
  %41 = load ptr, ptr %8, align 8
  %42 = getelementptr inbounds nuw %struct.tn3270_conv_info_t, ptr %41, i32 0, i32 2
  store i8 43, ptr %42, align 4
  %43 = load ptr, ptr %8, align 8
  %44 = getelementptr inbounds nuw %struct.tn3270_conv_info_t, ptr %43, i32 0, i32 3
  store i8 80, ptr %44, align 1
  br label %50

45:                                               ; preds = %27
  %46 = load ptr, ptr %8, align 8
  %47 = getelementptr inbounds nuw %struct.tn3270_conv_info_t, ptr %46, i32 0, i32 2
  store i8 27, ptr %47, align 4
  %48 = load ptr, ptr %8, align 8
  %49 = getelementptr inbounds nuw %struct.tn3270_conv_info_t, ptr %48, i32 0, i32 3
  store i8 -124, ptr %49, align 1
  br label %50

50:                                               ; preds = %45, %40, %35, %30
  %51 = load ptr, ptr %8, align 8
  %52 = getelementptr inbounds nuw %struct.tn3270_conv_info_t, ptr %51, i32 0, i32 4
  store i8 24, ptr %52, align 2
  %53 = load ptr, ptr %8, align 8
  %54 = getelementptr inbounds nuw %struct.tn3270_conv_info_t, ptr %53, i32 0, i32 5
  store i8 80, ptr %54, align 1
  %55 = load i32, ptr %5, align 4
  %56 = load ptr, ptr %8, align 8
  %57 = getelementptr inbounds nuw %struct.tn3270_conv_info_t, ptr %56, i32 0, i32 1
  store i32 %55, ptr %57, align 4
  call void @llvm.lifetime.end.p0(i64 8, ptr %8) #6
  call void @llvm.lifetime.end.p0(i64 8, ptr %7) #6
  ret void
}