; Function Attrs: null_pointer_is_valid sspstrong uwtable
define hidden void @add_tn3270_conversation(ptr noundef %0, i32 noundef %1, i32 noundef %2) local_unnamed_addr #0 {
  %4 = tail call ptr @find_or_create_conversation(ptr noundef %0)
  %5 = load i32, ptr @proto_tn3270, align 4
  %6 = tail call ptr @conversation_get_proto_data(ptr noundef %4, i32 noundef %5)
  %7 = icmp eq ptr %6, null
  br i1 %7, label %8, label %14

8:                                                ; preds = %3
  %9 = tail call ptr @wmem_file_scope()
  %10 = tail call noalias dereferenceable_or_null(12) ptr @wmem_alloc(ptr noundef %9, i64 noundef 12) #7
  %11 = getelementptr inbounds nuw i8, ptr %0, i64 288
  %12 = load i32, ptr %11, align 8
  store i32 %12, ptr %10, align 4
  %13 = load i32, ptr @proto_tn3270, align 4
  tail call void @conversation_add_proto_data(ptr noundef %4, i32 noundef %13, ptr noundef %10)
  br label %14

14:                                               ; preds = %8, %3
  %.0 = phi ptr [ %10, %8 ], [ %6, %3 ]
  %15 = icmp ult i32 %2, 6
  %switch.cast = zext i32 %2 to i48
  %switch.shiftamt = shl nuw nsw i48 %switch.cast, 3
  %switch.downshift = lshr i48 29872035993624, %switch.shiftamt
  %switch.masked = trunc i48 %switch.downshift to i8
  %switch.cast21 = zext i32 %2 to i48
  %switch.shiftamt22 = shl nuw nsw i48 %switch.cast21, 3
  %switch.downshift23 = lshr i48 -135994497019824, %switch.shiftamt22
  %switch.masked24 = trunc i48 %switch.downshift23 to i8
  %.sink20 = select i1 %15, i8 %switch.masked, i8 24
  %.sink = select i1 %15, i8 %switch.masked24, i8 80
  %16 = getelementptr inbounds nuw i8, ptr %.0, i64 9
  %17 = getelementptr inbounds nuw i8, ptr %.0, i64 8
  store i8 %.sink20, ptr %17, align 4
  store i8 %.sink, ptr %16, align 1
  %18 = getelementptr inbounds nuw i8, ptr %.0, i64 10
  store i8 24, ptr %18, align 2
  %19 = getelementptr inbounds nuw i8, ptr %.0, i64 11
  store i8 80, ptr %19, align 1
  %20 = getelementptr inbounds nuw i8, ptr %.0, i64 4
  store i32 %1, ptr %20, align 4
  ret void
}